target datalayout = "e-m:e-p270:32:32-p271:32:32-p272:64:64-i64:64-i128:128-f80:128-n8:16:32:64-S128"
target triple = "x86_64-pc-linux-gnu"

%struct.curve448_scalar_s = type { [7 x i64] }

@sc_p = internal constant [1 x %struct.curve448_scalar_s] [%struct.curve448_scalar_s { [7 x i64] [i64 2556006723728458995, i64 2408513697996967765, i64 -4301259484579875184, i64 -2201345047, i64 -1, i64 -1, i64 4611686018427387903] }], align 16

; Function Attrs: nounwind uwtable
define internal void @sc_subx(ptr noundef %0, ptr noundef %1, ptr noundef %2, ptr noundef %3, i64 noundef %4) #0 {
  %6 = alloca ptr, align 8
  %7 = alloca ptr, align 8
  %8 = alloca ptr, align 8
  %9 = alloca ptr, align 8
  %10 = alloca i64, align 8
  %11 = alloca i128, align 16
  %12 = alloca i32, align 4
  %13 = alloca i64, align 8
  store ptr %0, ptr %6, align 8, !tbaa !3
  store ptr %1, ptr %7, align 8, !tbaa !12
  store ptr %2, ptr %8, align 8, !tbaa !3
  store ptr %3, ptr %9, align 8, !tbaa !3
  store i64 %4, ptr %10, align 8, !tbaa !8
  call void @llvm.lifetime.start.p0(i64 16, ptr %11) #6
  store i128 0, ptr %11, align 16, !tbaa !14
  call void @llvm.lifetime.start.p0(i64 4, ptr %12) #6
  call void @llvm.lifetime.start.p0(i64 8, ptr %13) #6
  store i32 0, ptr %12, align 4, !tbaa !10
  br label %14

14:                                               ; preds = %43, %5
  %15 = load i32, ptr %12, align 4, !tbaa !10
  %16 = icmp ult i32 %15, 7
  br i1 %16, label %17, label %46

17:                                               ; preds = %14
  %18 = load i128, ptr %11, align 16, !tbaa !14
  %19 = load ptr, ptr %7, align 8, !tbaa !12
  %20 = load i32, ptr %12, align 4, !tbaa !10
  %21 = zext i32 %20 to i64
  %22 = getelementptr inbounds nuw i64, ptr %19, i64 %21
  %23 = load i64, ptr %22, align 8, !tbaa !8
  %24 = zext i64 %23 to i128
  %25 = add nsw i128 %18, %24
  %26 = load ptr, ptr %8, align 8, !tbaa !3
  %27 = getelementptr inbounds nuw %struct.curve448_scalar_s, ptr %26, i32 0, i32 0
  %28 = load i32, ptr %12, align 4, !tbaa !10
  %29 = zext i32 %28 to i64
  %30 = getelementptr inbounds nuw [7 x i64], ptr %27, i64 0, i64 %29
  %31 = load i64, ptr %30, align 8, !tbaa !8
  %32 = zext i64 %31 to i128
  %33 = sub nsw i128 %25, %32
  store i128 %33, ptr %11, align 16, !tbaa !14
  %34 = load i128, ptr %11, align 16, !tbaa !14
  %35 = trunc i128 %34 to i64
  %36 = load ptr, ptr %6, align 8, !tbaa !3
  %37 = getelementptr inbounds nuw %struct.curve448_scalar_s, ptr %36, i32 0, i32 0
  %38 = load i32, ptr %12, align 4, !tbaa !10
  %39 = zext i32 %38 to i64
  %40 = getelementptr inbounds nuw [7 x i64], ptr %37, i64 0, i64 %39
  store i64 %35, ptr %40, align 8, !tbaa !8
  %41 = load i128, ptr %11, align 16, !tbaa !14
  %42 = ashr i128 %41, 64
  store i128 %42, ptr %11, align 16, !tbaa !14
  br label %43

43:                                               ; preds = %17
  %44 = load i32, ptr %12, align 4, !tbaa !10
  %45 = add i32 %44, 1
  store i32 %45, ptr %12, align 4, !tbaa !10
  br label %14, !llvm.loop !20

46:                                               ; preds = %14
  %47 = load i128, ptr %11, align 16, !tbaa !14
  %48 = trunc i128 %47 to i64
  %49 = load i64, ptr %10, align 8, !tbaa !8
  %50 = add i64 %48, %49
  store i64 %50, ptr %13, align 8, !tbaa !8
  store i128 0, ptr %11, align 16, !tbaa !14
  store i32 0, ptr %12, align 4, !tbaa !10
  br label %51

51:                                               ; preds = %83, %46
  %52 = load i32, ptr %12, align 4, !tbaa !10
  %53 = icmp ult i32 %52, 7
  br i1 %53, label %54, label %86

54:                                               ; preds = %51
  %55 = load i128, ptr %11, align 16, !tbaa !14
  %56 = load ptr, ptr %6, align 8, !tbaa !3
  %57 = getelementptr inbounds nuw %struct.curve448_scalar_s, ptr %56, i32 0, i32 0
  %58 = load i32, ptr %12, align 4, !tbaa !10
  %59 = zext i32 %58 to i64
  %60 = getelementptr inbounds nuw [7 x i64], ptr %57, i64 0, i64 %59
  %61 = load i64, ptr %60, align 8, !tbaa !8
  %62 = zext i64 %61 to i128
  %63 = add nsw i128 %55, %62
  %64 = load ptr, ptr %9, align 8, !tbaa !3
  %65 = getelementptr inbounds nuw %struct.curve448_scalar_s, ptr %64, i32 0, i32 0
  %66 = load i32, ptr %12, align 4, !tbaa !10
  %67 = zext i32 %66 to i64
  %68 = getelementptr inbounds nuw [7 x i64], ptr %65, i64 0, i64 %67
  %69 = load i64, ptr %68, align 8, !tbaa !8
  %70 = load i64, ptr %13, align 8, !tbaa !8
  %71 = and i64 %69, %70
  %72 = zext i64 %71 to i128
  %73 = add nsw i128 %63, %72
  store i128 %73, ptr %11, align 16, !tbaa !14
  %74 = load i128, ptr %11, align 16, !tbaa !14
  %75 = trunc i128 %74 to i64
  %76 = load ptr, ptr %6, align 8, !tbaa !3
  %77 = getelementptr inbounds nuw %struct.curve448_scalar_s, ptr %76, i32 0, i32 0
  %78 = load i32, ptr %12, align 4, !tbaa !10
  %79 = zext i32 %78 to i64
  %80 = getelementptr inbounds nuw [7 x i64], ptr %77, i64 0, i64 %79
  store i64 %75, ptr %80, align 8, !tbaa !8
  %81 = load i128, ptr %11, align 16, !tbaa !14
  %82 = ashr i128 %81, 64
  store i128 %82, ptr %11, align 16, !tbaa !14
  br label %83

83:                                               ; preds = %54
  %84 = load i32, ptr %12, align 4, !tbaa !10
  %85 = add i32 %84, 1
  store i32 %85, ptr %12, align 4, !tbaa !10
  br label %51, !llvm.loop !21

86:                                               ; preds = %51
  call void @llvm.lifetime.end.p0(i64 8, ptr %13) #6
  call void @llvm.lifetime.end.p0(i64 4, ptr %12) #6
  call void @llvm.lifetime.end.p0(i64 16, ptr %11) #6
  ret void
}

; Function Attrs: nounwind uwtable
define internal void @sc_montmul(ptr noundef %0, ptr noundef %1, ptr noundef %2) #0 {
  %4 = alloca ptr, align 8
  %5 = alloca ptr, align 8
  %6 = alloca ptr, align 8
  %7 = alloca i32, align 4
  %8 = alloca i32, align 4
  %9 = alloca [8 x i64], align 16
  %10 = alloca i64, align 8
  %11 = alloca i64, align 8
  %12 = alloca ptr, align 8
  %13 = alloca i128, align 16
  store ptr %0, ptr %4, align 8, !tbaa !3
  store ptr %1, ptr %5, align 8, !tbaa !3
  store ptr %2, ptr %6, align 8, !tbaa !3
  call void @llvm.lifetime.start.p0(i64 4, ptr %7) #6
  call void @llvm.lifetime.start.p0(i64 4, ptr %8) #6
  call void @llvm.lifetime.start.p0(i64 64, ptr %9) #6
  call void @llvm.memset.p0.i64(ptr align 16 %9, i8 0, i64 64, i1 false)
  call void @llvm.lifetime.start.p0(i64 8, ptr %10) #6
  store i64 0, ptr %10, align 8, !tbaa !8
  store i32 0, ptr %7, align 4, !tbaa !10
  br label %14

14:                                               ; preds = %124, %3
  %15 = load i32, ptr %7, align 4, !tbaa !10
  %16 = icmp ult i32 %15, 7
  br i1 %16, label %17, label %127

17:                                               ; preds = %14
  call void @llvm.lifetime.start.p0(i64 8, ptr %11) #6
  %18 = load ptr, ptr %5, align 8, !tbaa !3
  %19 = getelementptr inbounds nuw %struct.curve448_scalar_s, ptr %18, i32 0, i32 0
  %20 = load i32, ptr %7, align 4, !tbaa !10
  %21 = zext i32 %20 to i64
  %22 = getelementptr inbounds nuw [7 x i64], ptr %19, i64 0, i64 %21
  %23 = load i64, ptr %22, align 8, !tbaa !8
  store i64 %23, ptr %11, align 8, !tbaa !8
  call void @llvm.lifetime.start.p0(i64 8, ptr %12) #6
  %24 = load ptr, ptr %6, align 8, !tbaa !3
  %25 = getelementptr inbounds nuw %struct.curve448_scalar_s, ptr %24, i32 0, i32 0
  %26 = getelementptr inbounds [7 x i64], ptr %25, i64 0, i64 0
  store ptr %26, ptr %12, align 8, !tbaa !12
  call void @llvm.lifetime.start.p0(i64 16, ptr %13) #6
  store i128 0, ptr %13, align 16, !tbaa !14
  store i32 0, ptr %8, align 4, !tbaa !10
  br label %27

27:                                               ; preds = %55, %17
  %28 = load i32, ptr %8, align 4, !tbaa !10
  %29 = icmp ult i32 %28, 7
  br i1 %29, label %30, label %58

30:                                               ; preds = %27
  %31 = load i64, ptr %11, align 8, !tbaa !8
  %32 = zext i64 %31 to i128
  %33 = load ptr, ptr %12, align 8, !tbaa !12
  %34 = load i32, ptr %8, align 4, !tbaa !10
  %35 = zext i32 %34 to i64
  %36 = getelementptr inbounds nuw i64, ptr %33, i64 %35
  %37 = load i64, ptr %36, align 8, !tbaa !8
  %38 = zext i64 %37 to i128
  %39 = mul i128 %32, %38
  %40 = load i32, ptr %8, align 4, !tbaa !10
  %41 = zext i32 %40 to i64
  %42 = getelementptr inbounds nuw [8 x i64], ptr %9, i64 0, i64 %41
  %43 = load i64, ptr %42, align 8, !tbaa !8
  %44 = zext i64 %43 to i128
  %45 = add i128 %39, %44
  %46 = load i128, ptr %13, align 16, !tbaa !14
  %47 = add i128 %46, %45
  store i128 %47, ptr %13, align 16, !tbaa !14
  %48 = load i128, ptr %13, align 16, !tbaa !14
  %49 = trunc i128 %48 to i64
  %50 = load i32, ptr %8, align 4, !tbaa !10
  %51 = zext i32 %50 to i64
  %52 = getelementptr inbounds nuw [8 x i64], ptr %9, i64 0, i64 %51
  store i64 %49, ptr %52, align 8, !tbaa !8
  %53 = load i128, ptr %13, align 16, !tbaa !14
  %54 = lshr i128 %53, 64
  store i128 %54, ptr %13, align 16, !tbaa !14
  br label %55

55:                                               ; preds = %30
  %56 = load i32, ptr %8, align 4, !tbaa !10
  %57 = add i32 %56, 1
  store i32 %57, ptr %8, align 4, !tbaa !10
  br label %27, !llvm.loop !16

58:                                               ; preds = %27
  %59 = load i128, ptr %13, align 16, !tbaa !14
  %60 = trunc i128 %59 to i64
  %61 = load i32, ptr %8, align 4, !tbaa !10
  %62 = zext i32 %61 to i64
  %63 = getelementptr inbounds nuw [8 x i64], ptr %9, i64 0, i64 %62
  store i64 %60, ptr %63, align 8, !tbaa !8
  %64 = getelementptr inbounds [8 x i64], ptr %9, i64 0, i64 0
  %65 = load i64, ptr %64, align 16, !tbaa !8
  %66 = mul i64 %65, 269446386856070085
  store i64 %66, ptr %11, align 8, !tbaa !8
  store i128 0, ptr %13, align 16, !tbaa !14
  store ptr @sc_p, ptr %12, align 8, !tbaa !12
  store i32 0, ptr %8, align 4, !tbaa !10
  br label %67

67:                                               ; preds = %100, %58
  %68 = load i32, ptr %8, align 4, !tbaa !10
  %69 = icmp ult i32 %68, 7
  br i1 %69, label %70, label %103

70:                                               ; preds = %67
  %71 = load i64, ptr %11, align 8, !tbaa !8
  %72 = zext i64 %71 to i128
  %73 = load ptr, ptr %12, align 8, !tbaa !12
  %74 = load i32, ptr %8, align 4, !tbaa !10
  %75 = zext i32 %74 to i64
  %76 = getelementptr inbounds nuw i64, ptr %73, i64 %75
  %77 = load i64, ptr %76, align 8, !tbaa !8
  %78 = zext i64 %77 to i128
  %79 = mul i128 %72, %78
  %80 = load i32, ptr %8, align 4, !tbaa !10
  %81 = zext i32 %80 to i64
  %82 = getelementptr inbounds nuw [8 x i64], ptr %9, i64 0, i64 %81
  %83 = load i64, ptr %82, align 8, !tbaa !8
  %84 = zext i64 %83 to i128
  %85 = add i128 %79, %84
  %86 = load i128, ptr %13, align 16, !tbaa !14
  %87 = add i128 %86, %85
  store i128 %87, ptr %13, align 16, !tbaa !14
  %88 = load i32, ptr %8, align 4, !tbaa !10
  %89 = icmp ne i32 %88, 0
  br i1 %89, label %90, label %97

90:                                               ; preds = %70
  %91 = load i128, ptr %13, align 16, !tbaa !14
  %92 = trunc i128 %91 to i64
  %93 = load i32, ptr %8, align 4, !tbaa !10
  %94 = sub i32 %93, 1
  %95 = zext i32 %94 to i64
  %96 = getelementptr inbounds nuw [8 x i64], ptr %9, i64 0, i64 %95
  store i64 %92, ptr %96, align 8, !tbaa !8
  br label %97

97:                                               ; preds = %90, %70
  %98 = load i128, ptr %13, align 16, !tbaa !14
  %99 = lshr i128 %98, 64
  store i128 %99, ptr %13, align 16, !tbaa !14
  br label %100

100:                                              ; preds = %97
  %101 = load i32, ptr %8, align 4, !tbaa !10
  %102 = add i32 %101, 1
  store i32 %102, ptr %8, align 4, !tbaa !10
  br label %67, !llvm.loop !18

103:                                              ; preds = %67
  %104 = load i32, ptr %8, align 4, !tbaa !10
  %105 = zext i32 %104 to i64
  %106 = getelementptr inbounds nuw [8 x i64], ptr %9, i64 0, i64 %105
  %107 = load i64, ptr %106, align 8, !tbaa !8
  %108 = zext i64 %107 to i128
  %109 = load i128, ptr %13, align 16, !tbaa !14
  %110 = add i128 %109, %108
  store i128 %110, ptr %13, align 16, !tbaa !14
  %111 = load i64, ptr %10, align 8, !tbaa !8
  %112 = zext i64 %111 to i128
  %113 = load i128, ptr %13, align 16, !tbaa !14
  %114 = add i128 %113, %112
  store i128 %114, ptr %13, align 16, !tbaa !14
  %115 = load i128, ptr %13, align 16, !tbaa !14
  %116 = trunc i128 %115 to i64
  %117 = load i32, ptr %8, align 4, !tbaa !10
  %118 = sub i32 %117, 1
  %119 = zext i32 %118 to i64
  %120 = getelementptr inbounds nuw [8 x i64], ptr %9, i64 0, i64 %119
  store i64 %116, ptr %120, align 8, !tbaa !8
  %121 = load i128, ptr %13, align 16, !tbaa !14
  %122 = lshr i128 %121, 64
  %123 = trunc i128 %122 to i64
  store i64 %123, ptr %10, align 8, !tbaa !8
  call void @llvm.lifetime.end.p0(i64 16, ptr %13) #6
  call void @llvm.lifetime.end.p0(i64 8, ptr %12) #6
  call void @llvm.lifetime.end.p0(i64 8, ptr %11) #6
  br label %124

124:                                              ; preds = %103
  %125 = load i32, ptr %7, align 4, !tbaa !10
  %126 = add i32 %125, 1
  store i32 %126, ptr %7, align 4, !tbaa !10
  br label %14, !llvm.loop !19

127:                                              ; preds = %14
  %128 = load ptr, ptr %4, align 8, !tbaa !3
  %129 = getelementptr inbounds [8 x i64], ptr %9, i64 0, i64 0
  %130 = load i64, ptr %10, align 8, !tbaa !8
  call void @sc_subx(ptr noundef %128, ptr noundef %129, ptr noundef @sc_p, ptr noundef @sc_p, i64 noundef %130)
  call void @llvm.lifetime.end.p0(i64 8, ptr %10) #6
  call void @llvm.lifetime.end.p0(i64 64, ptr %9) #6
  call void @llvm.lifetime.end.p0(i64 4, ptr %8) #6
  call void @llvm.lifetime.end.p0(i64 4, ptr %7) #6
  ret void
}