; Function Attrs: nofree norecurse nosync nounwind memory(argmem: readwrite) uwtable
define internal fastcc void @sc_montmul(ptr noundef captures(none) %0, ptr noundef readonly captures(none) %1, ptr noundef readonly captures(none) %2) unnamed_addr #0 {
  %4 = alloca [8 x i64], align 16
  call void @llvm.lifetime.start.p0(i64 64, ptr nonnull %4) #7
  call void @llvm.memset.p0.i64(ptr noundef nonnull align 16 dereferenceable(64) %4, i8 0, i64 64, i1 false)
  %5 = getelementptr inbounds nuw i8, ptr %4, i64 56
  %6 = getelementptr inbounds nuw i8, ptr %4, i64 48
  br label %7

7:                                                ; preds = %3, %44
  %indvars.iv56 = phi i64 [ 0, %3 ], [ %indvars.iv.next57, %44 ]
  %.03645 = phi i64 [ 0, %3 ], [ %52, %44 ]
  %8 = getelementptr inbounds nuw [7 x i64], ptr %1, i64 0, i64 %indvars.iv56
  %9 = load i64, ptr %8, align 8, !tbaa !3
  %10 = zext i64 %9 to i128
  br label %11

11:                                               ; preds = %7, %11
  %indvars.iv = phi i64 [ 0, %7 ], [ %indvars.iv.next, %11 ]
  %.041 = phi i128 [ 0, %7 ], [ %22, %11 ]
  %12 = getelementptr inbounds nuw i64, ptr %2, i64 %indvars.iv
  %13 = load i64, ptr %12, align 8, !tbaa !3
  %14 = zext i64 %13 to i128
  %15 = mul nuw i128 %14, %10
  %16 = getelementptr inbounds nuw [8 x i64], ptr %4, i64 0, i64 %indvars.iv
  %17 = load i64, ptr %16, align 8, !tbaa !3
  %18 = zext i64 %17 to i128
  %19 = add nuw nsw i128 %.041, %18
  %20 = add nuw i128 %19, %15
  %21 = trunc i128 %20 to i64
  store i64 %21, ptr %16, align 8, !tbaa !3
  %22 = lshr i128 %20, 64
  %indvars.iv.next = add nuw nsw i64 %indvars.iv, 1
  %exitcond.not = icmp eq i64 %indvars.iv.next, 7
  br i1 %exitcond.not, label %23, label %11, !llvm.loop !7

23:                                               ; preds = %11
  %24 = trunc nuw i128 %22 to i64
  store i64 %24, ptr %5, align 8, !tbaa !3
  %25 = load i64, ptr %4, align 16, !tbaa !3
  %26 = mul i64 %25, 269446386856070085
  %27 = zext i64 %26 to i128
  br label %28

28:                                               ; preds = %23, %42
  %indvars.iv52 = phi i64 [ 0, %23 ], [ %indvars.iv.next53, %42 ]
  %.143 = phi i128 [ 0, %23 ], [ %43, %42 ]
  %29 = getelementptr inbounds nuw i64, ptr @sc_p, i64 %indvars.iv52
  %30 = load i64, ptr %29, align 8, !tbaa !3
  %31 = zext i64 %30 to i128
  %32 = mul nuw i128 %31, %27
  %33 = getelementptr inbounds nuw [8 x i64], ptr %4, i64 0, i64 %indvars.iv52
  %34 = load i64, ptr %33, align 8, !tbaa !3
  %35 = zext i64 %34 to i128
  %36 = add nuw nsw i128 %.143, %35
  %37 = add nuw i128 %36, %32
  %.not = icmp eq i64 %indvars.iv52, 0
  br i1 %.not, label %42, label %38

38:                                               ; preds = %28
  %39 = trunc i128 %37 to i64
  %40 = add nsw i64 %indvars.iv52, -1
  %41 = getelementptr inbounds nuw [8 x i64], ptr %4, i64 0, i64 %40
  store i64 %39, ptr %41, align 8, !tbaa !3
  br label %42

42:                                               ; preds = %38, %28
  %43 = lshr i128 %37, 64
  %indvars.iv.next53 = add nuw nsw i64 %indvars.iv52, 1
  %exitcond55.not = icmp eq i64 %indvars.iv.next53, 7
  br i1 %exitcond55.not, label %44, label %28, !llvm.loop !9

44:                                               ; preds = %42
  %45 = load i64, ptr %5, align 8, !tbaa !3
  %46 = zext i64 %45 to i128
  %47 = zext nneg i64 %.03645 to i128
  %48 = add nuw nsw i128 %43, %47
  %49 = add nuw nsw i128 %48, %46
  %50 = trunc i128 %49 to i64
  store i64 %50, ptr %6, align 16, !tbaa !3
  %51 = lshr i128 %49, 64
  %52 = trunc nuw nsw i128 %51 to i64
  %indvars.iv.next57 = add nuw nsw i64 %indvars.iv56, 1
  %exitcond59.not = icmp eq i64 %indvars.iv.next57, 7
  br i1 %exitcond59.not, label %.preheader, label %7, !llvm.loop !10

.preheader:                                       ; preds = %44, %.preheader
  %indvars.iv.i = phi i64 [ %indvars.iv.next.i, %.preheader ], [ 0, %44 ]
  %.02.i = phi i128 [ %63, %.preheader ], [ 0, %44 ]
  %53 = getelementptr inbounds nuw i64, ptr %4, i64 %indvars.iv.i
  %54 = load i64, ptr %53, align 8, !tbaa !3
  %55 = zext i64 %54 to i128
  %56 = add nsw i128 %.02.i, %55
  %57 = getelementptr inbounds nuw [7 x i64], ptr @sc_p, i64 0, i64 %indvars.iv.i
  %58 = load i64, ptr %57, align 8, !tbaa !3
  %59 = zext i64 %58 to i128
  %60 = sub nsw i128 %56, %59
  %61 = trunc i128 %60 to i64
  %62 = getelementptr inbounds nuw [7 x i64], ptr %0, i64 0, i64 %indvars.iv.i
  store i64 %61, ptr %62, align 8, !tbaa !3
  %63 = ashr i128 %60, 64
  %indvars.iv.next.i = add nuw nsw i64 %indvars.iv.i, 1
  %exitcond.not.i = icmp eq i64 %indvars.iv.next.i, 7
  br i1 %exitcond.not.i, label %64, label %.preheader, !llvm.loop !11

64:                                               ; preds = %.preheader
  %65 = trunc nsw i128 %63 to i64
  %66 = add nsw i64 %65, %52
  br label %67

67:                                               ; preds = %67, %64
  %indvars.iv6.i = phi i64 [ 0, %64 ], [ %indvars.iv.next7.i, %67 ]
  %.14.i = phi i128 [ 0, %64 ], [ %78, %67 ]
  %68 = getelementptr inbounds nuw [7 x i64], ptr %0, i64 0, i64 %indvars.iv6.i
  %69 = load i64, ptr %68, align 8, !tbaa !3
  %70 = zext i64 %69 to i128
  %71 = add nuw nsw i128 %.14.i, %70
  %72 = getelementptr inbounds nuw [7 x i64], ptr @sc_p, i64 0, i64 %indvars.iv6.i
  %73 = load i64, ptr %72, align 8, !tbaa !3
  %74 = and i64 %73, %66
  %75 = zext i64 %74 to i128
  %76 = add nuw nsw i128 %71, %75
  %77 = trunc i128 %76 to i64
  store i64 %77, ptr %68, align 8, !tbaa !3
  %78 = lshr i128 %76, 64
  %indvars.iv.next7.i = add nuw nsw i64 %indvars.iv6.i, 1
  %exitcond9.not.i = icmp eq i64 %indvars.iv.next7.i, 7
  br i1 %exitcond9.not.i, label %sc_subx.exit, label %67, !llvm.loop !12

sc_subx.exit:                                     ; preds = %67
  call void @llvm.lifetime.end.p0(i64 64, ptr nonnull %4) #7
  ret void
}